target datalayout = "e-m:e-p270:32:32-p271:32:32-p272:64:64-i64:64-i128:128-f80:128-n8:16:32:64-S128"
target triple = "x86_64-pc-linux-gnu"

%struct._packet_info = type { ptr, ptr, i32, i32, %struct.nstime_t, %struct.nstime_t, %struct.nstime_t, i8, ptr, ptr, ptr, ptr, %struct._address, %struct._address, %struct._address, %struct._address, %struct._address, %struct._address, i32, ptr, i8, [3 x i8], %struct.anon, i32, i32, i32, i32, ptr, i8, ptr, ptr, i16, i16, i32, i32, i16, i32, i32, ptr, ptr, ptr, i8, i8, i16, i16, i16, i32, i16, i16, ptr, ptr, ptr, ptr, ptr, i32, i32 }
%struct.nstime_t = type { i64, i32 }
%struct._address = type { i32, i32, ptr, ptr }
%struct.anon = type { i8, [3 x i8] }

@hf_mip6_ipv4ha_preflen = internal global i32 0, align 4
@hf_mip6_ipv4ha_ha = internal global i32 0, align 4
@hf_mip6_ipv4ha_reserved = internal global i32 0, align 4
@ett_mip6_opt_ipv4hareq = internal global i32 0, align 4
@proto_mip6_option_ipv4hareq = internal global i32 0, align 4
@.str.755 = private unnamed_addr constant [5 x i8] c": %s\00", align 1
@.str.760 = private unnamed_addr constant [73 x i8] c" - Request that the local mobility anchor perform the address allocation\00", align 1

; Function Attrs: null_pointer_is_valid sspstrong uwtable
define internal i32 @dissect_pmip6_opt_ipv4hareq(ptr noundef %0, ptr noundef %1, ptr noundef %2, ptr noundef %3) #0 {
  %5 = alloca ptr, align 8
  %6 = alloca ptr, align 8
  %7 = alloca ptr, align 8
  %8 = alloca ptr, align 8
  %9 = alloca ptr, align 8
  %10 = alloca ptr, align 8
  %11 = alloca i32, align 4
  %12 = alloca i32, align 4
  %13 = alloca ptr, align 8
  %14 = alloca i32, align 4
  store ptr %0, ptr %5, align 8
  store ptr %1, ptr %6, align 8
  store ptr %2, ptr %7, align 8
  store ptr %3, ptr %8, align 8
  call void @llvm.lifetime.start.p0(i64 8, ptr %9) #6
  call void @llvm.lifetime.start.p0(i64 8, ptr %10) #6
  call void @llvm.lifetime.start.p0(i64 4, ptr %11) #6
  %15 = load ptr, ptr %5, align 8
  %16 = call i32 @tvb_reported_length(ptr noundef %15)
  %17 = sub i32 %16, 2
  store i32 %17, ptr %11, align 4
  call void @llvm.lifetime.start.p0(i64 4, ptr %12) #6
  store i32 2, ptr %12, align 4
  call void @llvm.lifetime.start.p0(i64 8, ptr %13) #6
  call void @llvm.lifetime.start.p0(i64 4, ptr %14) #6
  %18 = load ptr, ptr %7, align 8
  %19 = load ptr, ptr %6, align 8
  %20 = load ptr, ptr %5, align 8
  %21 = load i32, ptr @proto_mip6_option_ipv4hareq, align 4
  %22 = load i32, ptr @ett_mip6_opt_ipv4hareq, align 4
  %23 = load i32, ptr %11, align 4
  %24 = call ptr @mip6_fixed_option_header(ptr noundef %18, ptr noundef %19, ptr noundef %20, i32 noundef %21, i32 noundef %22, ptr noundef %10, i32 noundef %23, i32 noundef 6)
  store ptr %24, ptr %9, align 8
  %25 = load ptr, ptr %9, align 8
  %26 = load i32, ptr @hf_mip6_ipv4ha_preflen, align 4
  %27 = load ptr, ptr %5, align 8
  %28 = load i32, ptr %12, align 4
  %29 = call ptr @proto_tree_add_item(ptr noundef %25, i32 noundef %26, ptr noundef %27, i32 noundef %28, i32 noundef 1, i32 noundef 0)
  %30 = load i32, ptr %12, align 4
  %31 = add i32 %30, 1
  store i32 %31, ptr %12, align 4
  %32 = load ptr, ptr %9, align 8
  %33 = load i32, ptr @hf_mip6_ipv4ha_reserved, align 4
  %34 = load ptr, ptr %5, align 8
  %35 = load i32, ptr %12, align 4
  %36 = call ptr @proto_tree_add_item(ptr noundef %32, i32 noundef %33, ptr noundef %34, i32 noundef %35, i32 noundef 1, i32 noundef 0)
  %37 = load i32, ptr %12, align 4
  %38 = add i32 %37, 1
  store i32 %38, ptr %12, align 4
  %39 = load ptr, ptr %5, align 8
  %40 = load i32, ptr %12, align 4
  %41 = call i32 @tvb_get_ntohl(ptr noundef %39, i32 noundef %40)
  store i32 %41, ptr %14, align 4
  %42 = load ptr, ptr %9, align 8
  %43 = load i32, ptr @hf_mip6_ipv4ha_ha, align 4
  %44 = load ptr, ptr %5, align 8
  %45 = load i32, ptr %12, align 4
  %46 = call ptr @proto_tree_add_item(ptr noundef %42, i32 noundef %43, ptr noundef %44, i32 noundef %45, i32 noundef 4, i32 noundef 0)
  store ptr %46, ptr %13, align 8
  %47 = load i32, ptr %14, align 4
  %48 = icmp eq i32 %47, 0
  br i1 %48, label %49, label %51

49:                                               ; preds = %4
  %50 = load ptr, ptr %13, align 8
  call void (ptr, ptr, ...) @proto_item_append_text(ptr noundef %50, ptr noundef @.str.760)
  br label %51

51:                                               ; preds = %49, %4
  %52 = load ptr, ptr %10, align 8
  %53 = load ptr, ptr %6, align 8
  %54 = getelementptr inbounds nuw %struct._packet_info, ptr %53, i32 0, i32 51
  %55 = load ptr, ptr %54, align 8
  %56 = load ptr, ptr %5, align 8
  %57 = load i32, ptr %12, align 4
  %58 = call ptr @tvb_address_to_str(ptr noundef %55, ptr noundef %56, i32 noundef 2, i32 noundef %57)
  call void (ptr, ptr, ...) @proto_item_append_text(ptr noundef %52, ptr noundef @.str.755, ptr noundef %58)
  %59 = load ptr, ptr %5, align 8
  %60 = call i32 @tvb_captured_length(ptr noundef %59)
  call void @llvm.lifetime.end.p0(i64 4, ptr %14) #6
  call void @llvm.lifetime.end.p0(i64 8, ptr %13) #6
  call void @llvm.lifetime.end.p0(i64 4, ptr %12) #6
  call void @llvm.lifetime.end.p0(i64 4, ptr %11) #6
  call void @llvm.lifetime.end.p0(i64 8, ptr %10) #6
  call void @llvm.lifetime.end.p0(i64 8, ptr %9) #6
  ret i32 %60
}