; Function Attrs: null_pointer_is_valid sspstrong uwtable
define internal i32 @dissect_pmip6_opt_ipv4hareq(ptr noundef %0, ptr noundef %1, ptr noundef %2, ptr readnone captures(none) %3) #0 {
  %5 = alloca ptr, align 8
  call void @llvm.lifetime.start.p0(i64 8, ptr nonnull %5) #5
  %6 = tail call i32 @tvb_reported_length(ptr noundef %0)
  %7 = add i32 %6, -2
  %8 = load i32, ptr @proto_mip6_option_ipv4hareq, align 4
  %9 = load i32, ptr @ett_mip6_opt_ipv4hareq, align 4
  %10 = call fastcc ptr @mip6_fixed_option_header(ptr noundef %2, ptr noundef %1, ptr noundef %0, i32 noundef %8, i32 noundef %9, ptr noundef nonnull %5, i32 noundef %7, i32 noundef 6)
  %11 = load i32, ptr @hf_mip6_ipv4ha_preflen, align 4
  %12 = tail call ptr @proto_tree_add_item(ptr noundef %10, i32 noundef %11, ptr noundef %0, i32 noundef 2, i32 noundef 1, i32 noundef 0)
  %13 = load i32, ptr @hf_mip6_ipv4ha_reserved, align 4
  %14 = tail call ptr @proto_tree_add_item(ptr noundef %10, i32 noundef %13, ptr noundef %0, i32 noundef 3, i32 noundef 1, i32 noundef 0)
  %15 = tail call i32 @tvb_get_ntohl(ptr noundef %0, i32 noundef 4)
  %16 = load i32, ptr @hf_mip6_ipv4ha_ha, align 4
  %17 = tail call ptr @proto_tree_add_item(ptr noundef %10, i32 noundef %16, ptr noundef %0, i32 noundef 4, i32 noundef 4, i32 noundef 0)
  %18 = icmp eq i32 %15, 0
  br i1 %18, label %19, label %20

19:                                               ; preds = %4
  tail call void (ptr, ptr, ...) @proto_item_append_text(ptr noundef %17, ptr noundef nonnull @.str.760)
  br label %20

20:                                               ; preds = %19, %4
  %21 = load ptr, ptr %5, align 8
  %22 = getelementptr inbounds nuw i8, ptr %1, i64 408
  %23 = load ptr, ptr %22, align 8
  %24 = tail call ptr @tvb_address_to_str(ptr noundef %23, ptr noundef %0, i32 noundef 2, i32 noundef 4)
  tail call void (ptr, ptr, ...) @proto_item_append_text(ptr noundef %21, ptr noundef nonnull @.str.755, ptr noundef %24)
  %25 = tail call i32 @tvb_captured_length(ptr noundef %0)
  call void @llvm.lifetime.end.p0(i64 8, ptr nonnull %5) #5
  ret i32 %25
}